target datalayout = "e-m:e-p270:32:32-p271:32:32-p272:64:64-i64:64-i128:128-f80:128-n8:16:32:64-S128"
target triple = "x86_64-unknown-linux-gnu"

%"class.std::__shared_count" = type { ptr }
%"class.std::shared_ptr.3" = type { %"class.std::__shared_ptr.4" }
%"class.std::__shared_ptr.4" = type { ptr, %"class.std::__shared_count" }
%"class.arrow::Future.57" = type { %"class.std::shared_ptr.3" }

; Function Attrs: mustprogress uwtable
define void @_ZN5arrow2io16RandomAccessFile9ReadAsyncEll(ptr noalias sret(%"class.arrow::Future.57") align 8 %agg.result, ptr noundef nonnull align 8 dereferenceable(24) %this, i64 noundef %position, i64 noundef %nbytes) #0 align 2 {
entry:
  %result.ptr = alloca ptr, align 8
  %this.addr = alloca ptr, align 8
  %position.addr = alloca i64, align 8
  %nbytes.addr = alloca i64, align 8
  store ptr %agg.result, ptr %result.ptr, align 8
  store ptr %this, ptr %this.addr, align 8
  store i64 %position, ptr %position.addr, align 8
  store i64 %nbytes, ptr %nbytes.addr, align 8
  %this1 = load ptr, ptr %this.addr, align 8
  %vtable = load ptr, ptr %this1, align 8
  %vbase.offset.ptr = getelementptr i8, ptr %vtable, i64 -64
  %vbase.offset = load i64, ptr %vbase.offset.ptr, align 8
  %add.ptr = getelementptr inbounds i8, ptr %this1, i64 %vbase.offset
  %vtable2 = load ptr, ptr %add.ptr, align 8
  %vfn = getelementptr inbounds ptr, ptr %vtable2, i64 4
  %0 = load ptr, ptr %vfn, align 8
  %call = call noundef nonnull align 8 dereferenceable(40) ptr %0(ptr noundef nonnull align 8 dereferenceable(8) %add.ptr)
  %1 = load i64, ptr %position.addr, align 8
  %2 = load i64, ptr %nbytes.addr, align 8
  %vtable3 = load ptr, ptr %this1, align 8
  %vfn4 = getelementptr inbounds ptr, ptr %vtable3, i64 12
  %3 = load ptr, ptr %vfn4, align 8
  call void %3(ptr sret(%"class.arrow::Future.57") align 8 %agg.result, ptr noundef nonnull align 8 dereferenceable(24) %this1, ptr noundef nonnull align 8 dereferenceable(40) %call, i64 noundef %1, i64 noundef %2)
  ret void
}