; Function Attrs: mustprogress uwtable
define void @_ZN5arrow2io16RandomAccessFile9ReadAsyncEll(ptr noalias sret(%"class.arrow::Future.57") align 8 %agg.result, ptr noundef nonnull align 8 dereferenceable(24) %this, i64 noundef %position, i64 noundef %nbytes) local_unnamed_addr #0 align 2 {
entry:
  %vtable = load ptr, ptr %this, align 8
  %vbase.offset.ptr = getelementptr i8, ptr %vtable, i64 -64
  %vbase.offset = load i64, ptr %vbase.offset.ptr, align 8
  %add.ptr = getelementptr inbounds i8, ptr %this, i64 %vbase.offset
  %vtable2 = load ptr, ptr %add.ptr, align 8
  %vfn = getelementptr inbounds i8, ptr %vtable2, i64 32
  %0 = load ptr, ptr %vfn, align 8
  %call = tail call noundef nonnull align 8 dereferenceable(40) ptr %0(ptr noundef nonnull align 8 dereferenceable(8) %add.ptr)
  %vtable3 = load ptr, ptr %this, align 8
  %vfn4 = getelementptr inbounds i8, ptr %vtable3, i64 96
  %1 = load ptr, ptr %vfn4, align 8
  tail call void %1(ptr sret(%"class.arrow::Future.57") align 8 %agg.result, ptr noundef nonnull align 8 dereferenceable(24) %this, ptr noundef nonnull align 8 dereferenceable(40) %call, i64 noundef %position, i64 noundef %nbytes)
  ret void
}